target datalayout = "e-m:e-p270:32:32-p271:32:32-p272:64:64-i64:64-i128:128-f80:128-n8:16:32:64-S128"
target triple = "x86_64-pc-linux-gnu"

@_ZN6icu_7718DateIntervalFormatC1ERKNS_6LocaleEPNS_16DateIntervalInfoEPKNS_13UnicodeStringER10UErrorCode = unnamed_addr alias void (ptr, ptr, ptr, ptr, ptr), ptr @_ZN6icu_7718DateIntervalFormatC2ERKNS_6LocaleEPNS_16DateIntervalInfoEPKNS_13UnicodeStringER10UErrorCode

; Function Attrs: inlinehint mustprogress nounwind uwtable
define internal noundef signext i8 @_ZL9U_FAILURE10UErrorCode(i32 noundef %0) #2 {
  %2 = alloca i32, align 4
  store i32 %0, ptr %2, align 4, !tbaa !15
  %3 = load i32, ptr %2, align 4, !tbaa !15
  %4 = icmp sgt i32 %3, 0
  %5 = zext i1 %4 to i8
  ret i8 %5
}

; Function Attrs: mustprogress uwtable
define noundef ptr @_ZN6icu_7718DateIntervalFormat6createERKNS_6LocaleEPNS_16DateIntervalInfoEPKNS_13UnicodeStringER10UErrorCode(ptr noundef nonnull align 8 dereferenceable(217) %0, ptr noundef %1, ptr noundef %2, ptr noundef nonnull align 4 dereferenceable(4) %3) #1 align 2 personality ptr @__gxx_personality_v0 {
  %5 = alloca ptr, align 8
  %6 = alloca ptr, align 8
  %7 = alloca ptr, align 8
  %8 = alloca ptr, align 8
  %9 = alloca ptr, align 8
  %10 = alloca i1, align 1
  %11 = alloca ptr, align 8
  %12 = alloca i32, align 4
  store ptr %0, ptr %5, align 8, !tbaa !43
  store ptr %1, ptr %6, align 8, !tbaa !45
  store ptr %2, ptr %7, align 8, !tbaa !41
  store ptr %3, ptr %8, align 8, !tbaa !22
  call void @llvm.lifetime.start.p0(i64 8, ptr %9) #12
  %13 = call noundef ptr @_ZN6icu_777UMemorynwEm(i64 noundef 1600) #12
  %14 = icmp eq ptr %13, null
  store i1 false, ptr %10, align 1
  br i1 %14, label %21, label %15

15:                                               ; preds = %4
  store i1 true, ptr %10, align 1
  %16 = load ptr, ptr %5, align 8, !tbaa !43
  %17 = load ptr, ptr %6, align 8, !tbaa !45
  %18 = load ptr, ptr %7, align 8, !tbaa !41
  %19 = load ptr, ptr %8, align 8, !tbaa !22
  invoke void @_ZN6icu_7718DateIntervalFormatC1ERKNS_6LocaleEPNS_16DateIntervalInfoEPKNS_13UnicodeStringER10UErrorCode(ptr noundef nonnull align 8 dereferenceable(1596) %13, ptr noundef nonnull align 8 dereferenceable(217) %16, ptr noundef %17, ptr noundef %18, ptr noundef nonnull align 4 dereferenceable(4) %19)
          to label %20 unwind label %31

20:                                               ; preds = %15
  br label %21

21:                                               ; preds = %20, %4
  %22 = phi ptr [ %13, %20 ], [ null, %4 ]
  store ptr %22, ptr %9, align 8, !tbaa !39
  %23 = load ptr, ptr %9, align 8, !tbaa !39
  %24 = icmp eq ptr %23, null
  br i1 %24, label %25, label %38

25:                                               ; preds = %21
  %26 = load ptr, ptr %8, align 8, !tbaa !22
  store i32 7, ptr %26, align 4, !tbaa !15
  %27 = load ptr, ptr %6, align 8, !tbaa !45
  %28 = icmp eq ptr %27, null
  br i1 %28, label %30, label %29

29:                                               ; preds = %25
  call void @_ZN6icu_7716DateIntervalInfoD1Ev(ptr noundef nonnull align 8 dereferenceable(88) %27) #12
  call void @_ZN6icu_777UMemorydlEPv(ptr noundef %27) #12
  br label %30

30:                                               ; preds = %29, %25
  br label %52

31:                                               ; preds = %15
  %32 = landingpad { ptr, i32 }
          cleanup
  %33 = extractvalue { ptr, i32 } %32, 0
  store ptr %33, ptr %11, align 8
  %34 = extractvalue { ptr, i32 } %32, 1
  store i32 %34, ptr %12, align 4
  %35 = load i1, ptr %10, align 1
  br i1 %35, label %36, label %37

36:                                               ; preds = %31
  call void @_ZN6icu_777UMemorydlEPv(ptr noundef %13) #12
  br label %37

37:                                               ; preds = %36, %31
  call void @llvm.lifetime.end.p0(i64 8, ptr %9) #12
  br label %54

38:                                               ; preds = %21
  %39 = load ptr, ptr %8, align 8, !tbaa !22
  %40 = load i32, ptr %39, align 4, !tbaa !15
  %41 = call noundef signext i8 @_ZL9U_FAILURE10UErrorCode(i32 noundef %40)
  %42 = icmp ne i8 %41, 0
  br i1 %42, label %43, label %51

43:                                               ; preds = %38
  %44 = load ptr, ptr %9, align 8, !tbaa !39
  %45 = icmp eq ptr %44, null
  br i1 %45, label %50, label %46

46:                                               ; preds = %43
  %47 = load ptr, ptr %44, align 8, !tbaa !27
  %48 = getelementptr inbounds ptr, ptr %47, i64 1
  %49 = load ptr, ptr %48, align 8
  call void %49(ptr noundef nonnull align 8 dereferenceable(1596) %44) #12
  br label %50

50:                                               ; preds = %46, %43
  store ptr null, ptr %9, align 8, !tbaa !39
  br label %51

51:                                               ; preds = %50, %38
  br label %52

52:                                               ; preds = %51, %30
  %53 = load ptr, ptr %9, align 8, !tbaa !39
  call void @llvm.lifetime.end.p0(i64 8, ptr %9) #12
  ret ptr %53

54:                                               ; preds = %37
  %55 = load ptr, ptr %11, align 8
  %56 = load i32, ptr %12, align 4
  %57 = insertvalue { ptr, i32 } poison, ptr %55, 0
  %58 = insertvalue { ptr, i32 } %57, i32 %56, 1
  resume { ptr, i32 } %58
}