; Function Attrs: mustprogress uwtable
define noundef ptr @_ZN6icu_7718DateIntervalFormat6createERKNS_6LocaleEPNS_16DateIntervalInfoEPKNS_13UnicodeStringER10UErrorCode(ptr noundef nonnull align 8 dereferenceable(217) %0, ptr noundef %1, ptr noundef %2, ptr noundef nonnull align 4 dereferenceable(4) %3) local_unnamed_addr #1 align 2 personality ptr @__gxx_personality_v0 {
  %5 = tail call noundef ptr @_ZN6icu_777UMemorynwEm(i64 noundef 1600) #19
  %6 = icmp eq ptr %5, null
  br i1 %6, label %8, label %7

7:                                                ; preds = %4
  invoke void @_ZN6icu_7718DateIntervalFormatC1ERKNS_6LocaleEPNS_16DateIntervalInfoEPKNS_13UnicodeStringER10UErrorCode(ptr noundef nonnull align 8 dereferenceable(1596) %5, ptr noundef nonnull align 8 dereferenceable(217) %0, ptr noundef %1, ptr noundef %2, ptr noundef nonnull align 4 dereferenceable(4) %3)
          to label %13 unwind label %11

8:                                                ; preds = %4
  store i32 7, ptr %3, align 4, !tbaa !13
  %9 = icmp eq ptr %1, null
  br i1 %9, label %20, label %10

10:                                               ; preds = %8
  tail call void @_ZN6icu_7716DateIntervalInfoD1Ev(ptr noundef nonnull align 8 dereferenceable(88) %1) #19
  tail call void @_ZN6icu_777UMemorydlEPv(ptr noundef nonnull %1) #19
  br label %20

11:                                               ; preds = %7
  %12 = landingpad { ptr, i32 }
          cleanup
  tail call void @_ZN6icu_777UMemorydlEPv(ptr noundef nonnull %5) #19
  resume { ptr, i32 } %12

13:                                               ; preds = %7
  %14 = load i32, ptr %3, align 4, !tbaa !13
  %15 = icmp slt i32 %14, 1
  br i1 %15, label %20, label %16

16:                                               ; preds = %13
  %17 = load ptr, ptr %5, align 8, !tbaa !15
  %18 = getelementptr inbounds nuw i8, ptr %17, i64 8
  %19 = load ptr, ptr %18, align 8
  tail call void %19(ptr noundef nonnull align 8 dereferenceable(1596) %5) #19
  br label %20

20:                                               ; preds = %13, %16, %8, %10
  %.0 = phi ptr [ null, %8 ], [ null, %10 ], [ null, %16 ], [ %5, %13 ]
  ret ptr %.0
}